target datalayout = "e-m:e-p270:32:32-p271:32:32-p272:64:64-i64:64-i128:128-f80:128-n8:16:32:64-S128"
target triple = "x86_64-pc-linux-gnu"

%struct.nghttp2_huff_sym = type { i32, i32 }

@huff_sym_table = external constant [0 x %struct.nghttp2_huff_sym], align 4

; Function Attrs: nounwind uwtable
define dso_local i64 @nghttp2_hd_huff_encode_count(ptr noundef %0, i64 noundef %1) #0 {
  %3 = alloca ptr, align 8
  %4 = alloca i64, align 8
  %5 = alloca i64, align 8
  %6 = alloca i64, align 8
  store ptr %0, ptr %3, align 8, !tbaa !4
  store i64 %1, ptr %4, align 8, !tbaa !9
  call void @llvm.lifetime.start.p0(i64 8, ptr %5) #6
  call void @llvm.lifetime.start.p0(i64 8, ptr %6) #6
  store i64 0, ptr %6, align 8, !tbaa !9
  store i64 0, ptr %5, align 8, !tbaa !9
  br label %7

7:                                                ; preds = %23, %2
  %8 = load i64, ptr %5, align 8, !tbaa !9
  %9 = load i64, ptr %4, align 8, !tbaa !9
  %10 = icmp ult i64 %8, %9
  br i1 %10, label %11, label %26

11:                                               ; preds = %7
  %12 = load ptr, ptr %3, align 8, !tbaa !4
  %13 = load i64, ptr %5, align 8, !tbaa !9
  %14 = getelementptr inbounds nuw i8, ptr %12, i64 %13
  %15 = load i8, ptr %14, align 1, !tbaa !11
  %16 = zext i8 %15 to i64
  %17 = getelementptr inbounds nuw [0 x %struct.nghttp2_huff_sym], ptr @huff_sym_table, i64 0, i64 %16
  %18 = getelementptr inbounds nuw %struct.nghttp2_huff_sym, ptr %17, i32 0, i32 0
  %19 = load i32, ptr %18, align 4, !tbaa !12
  %20 = zext i32 %19 to i64
  %21 = load i64, ptr %6, align 8, !tbaa !9
  %22 = add i64 %21, %20
  store i64 %22, ptr %6, align 8, !tbaa !9
  br label %23

23:                                               ; preds = %11
  %24 = load i64, ptr %5, align 8, !tbaa !9
  %25 = add i64 %24, 1
  store i64 %25, ptr %5, align 8, !tbaa !9
  br label %7, !llvm.loop !15

26:                                               ; preds = %7
  %27 = load i64, ptr %6, align 8, !tbaa !9
  %28 = add i64 %27, 7
  %29 = udiv i64 %28, 8
  call void @llvm.lifetime.end.p0(i64 8, ptr %6) #6
  call void @llvm.lifetime.end.p0(i64 8, ptr %5) #6
  ret i64 %29
}